target datalayout = "e-m:e-p270:32:32-p271:32:32-p272:64:64-i64:64-i128:128-f80:128-n8:16:32:64-S128"
target triple = "x86_64-pc-linux-gnu"

; Function Attrs: inlinehint nounwind uwtable
define internal i32 @shiftFunc(i32 noundef %0) #2 {
  %2 = alloca i32, align 4
  store i32 %0, ptr %2, align 4, !tbaa !8
  %3 = load i32, ptr %2, align 4, !tbaa !8
  %4 = shl i32 1, %3
  ret i32 %4
}

; Function Attrs: nounwind uwtable
define internal i32 @Abc_TtScc6(i64 noundef %0, i32 noundef %1) #0 {
  %3 = alloca i32, align 4
  %4 = alloca i64, align 8
  %5 = alloca i32, align 4
  %6 = alloca i32, align 4
  %7 = alloca i32, align 4
  %8 = alloca i32, align 4
  %9 = alloca i32, align 4
  store i64 %0, ptr %4, align 8, !tbaa !10
  store i32 %1, ptr %5, align 4, !tbaa !8
  call void @llvm.lifetime.start.p0(i64 4, ptr %6) #12
  call void @llvm.lifetime.start.p0(i64 4, ptr %7) #12
  store i32 0, ptr %7, align 4, !tbaa !8
  %10 = load i64, ptr %4, align 8, !tbaa !10
  %11 = icmp ne i64 %10, 0
  br i1 %11, label %13, label %12

12:                                               ; preds = %2
  store i32 0, ptr %3, align 4
  store i32 1, ptr %8, align 4
  br label %40

13:                                               ; preds = %2
  store i32 0, ptr %6, align 4, !tbaa !8
  br label %14

14:                                               ; preds = %35, %13
  %15 = load i32, ptr %6, align 4, !tbaa !8
  %16 = icmp slt i32 %15, 64
  br i1 %16, label %17, label %38

17:                                               ; preds = %14
  %18 = load i64, ptr %4, align 8, !tbaa !10
  %19 = load i32, ptr %6, align 4, !tbaa !8
  %20 = zext i32 %19 to i64
  %21 = shl i64 1, %20
  %22 = and i64 %18, %21
  %23 = icmp ne i64 %22, 0
  br i1 %23, label %24, label %34

24:                                               ; preds = %17
  call void @llvm.lifetime.start.p0(i64 4, ptr %9) #12
  %25 = load i32, ptr %6, align 4, !tbaa !8
  %26 = and i32 %25, 255
  %27 = call i32 @llvm.ctpop.i32(i32 %26)
  %28 = load i32, ptr %5, align 4, !tbaa !8
  %29 = add nsw i32 %27, %28
  store i32 %29, ptr %9, align 4, !tbaa !8
  %30 = load i32, ptr %9, align 4, !tbaa !8
  %31 = call i32 @shiftFunc(i32 noundef %30)
  %32 = load i32, ptr %7, align 4, !tbaa !8
  %33 = add nsw i32 %32, %31
  store i32 %33, ptr %7, align 4, !tbaa !8
  call void @llvm.lifetime.end.p0(i64 4, ptr %9) #12
  br label %34

34:                                               ; preds = %24, %17
  br label %35

35:                                               ; preds = %34
  %36 = load i32, ptr %6, align 4, !tbaa !8
  %37 = add nsw i32 %36, 1
  store i32 %37, ptr %6, align 4, !tbaa !8
  br label %14, !llvm.loop !23

38:                                               ; preds = %14
  %39 = load i32, ptr %7, align 4, !tbaa !8
  store i32 %39, ptr %3, align 4
  store i32 1, ptr %8, align 4
  br label %40

40:                                               ; preds = %38, %12
  call void @llvm.lifetime.end.p0(i64 4, ptr %7) #12
  call void @llvm.lifetime.end.p0(i64 4, ptr %6) #12
  %41 = load i32, ptr %3, align 4
  ret i32 %41
}

; Function Attrs: inlinehint nounwind uwtable
define internal i32 @Abc_TtBitCount16(i32 noundef %0) #2 {
  %2 = alloca i32, align 4
  store i32 %0, ptr %2, align 4, !tbaa !8
  %3 = load i32, ptr %2, align 4, !tbaa !8
  %4 = and i32 %3, 65535
  %5 = call i32 @llvm.ctpop.i32(i32 %4)
  ret i32 %5
}

; Function Attrs: nounwind uwtable
define void @Abc_TtNormalizeSmallTruth(ptr noundef %0, i32 noundef %1) #0 {
  %3 = alloca ptr, align 8
  %4 = alloca i32, align 4
  %5 = alloca i32, align 4
  %6 = alloca i32, align 4
  %7 = alloca i64, align 8
  store ptr %0, ptr %3, align 8, !tbaa !3
  store i32 %1, ptr %4, align 4, !tbaa !8
  %8 = load i32, ptr %4, align 4, !tbaa !8
  %9 = icmp slt i32 %8, 6
  br i1 %9, label %10, label %38

10:                                               ; preds = %2
  call void @llvm.lifetime.start.p0(i64 4, ptr %5) #12
  call void @llvm.lifetime.start.p0(i64 4, ptr %6) #12
  %11 = load i32, ptr %4, align 4, !tbaa !8
  %12 = shl i32 1, %11
  store i32 %12, ptr %6, align 4, !tbaa !8
  call void @llvm.lifetime.start.p0(i64 8, ptr %7) #12
  %13 = load ptr, ptr %3, align 8, !tbaa !3
  %14 = load i64, ptr %13, align 8, !tbaa !10
  %15 = load i32, ptr %6, align 4, !tbaa !8
  %16 = zext i32 %15 to i64
  %17 = shl i64 1, %16
  %18 = sub i64 %17, 1
  %19 = and i64 %14, %18
  %20 = load ptr, ptr %3, align 8, !tbaa !3
  store i64 %19, ptr %20, align 8, !tbaa !10
  store i64 %19, ptr %7, align 8, !tbaa !10
  %21 = load i32, ptr %6, align 4, !tbaa !8
  store i32 %21, ptr %5, align 4, !tbaa !8
  br label %22

22:                                               ; preds = %33, %10
  %23 = load i32, ptr %5, align 4, !tbaa !8
  %24 = icmp slt i32 %23, 64
  br i1 %24, label %25, label %37

25:                                               ; preds = %22
  %26 = load i64, ptr %7, align 8, !tbaa !10
  %27 = load i32, ptr %5, align 4, !tbaa !8
  %28 = zext i32 %27 to i64
  %29 = shl i64 %26, %28
  %30 = load ptr, ptr %3, align 8, !tbaa !3
  %31 = load i64, ptr %30, align 8, !tbaa !10
  %32 = or i64 %31, %29
  store i64 %32, ptr %30, align 8, !tbaa !10
  br label %33

33:                                               ; preds = %25
  %34 = load i32, ptr %6, align 4, !tbaa !8
  %35 = load i32, ptr %5, align 4, !tbaa !8
  %36 = add nsw i32 %35, %34
  store i32 %36, ptr %5, align 4, !tbaa !8
  br label %22, !llvm.loop !12

37:                                               ; preds = %22
  call void @llvm.lifetime.end.p0(i64 8, ptr %7) #12
  call void @llvm.lifetime.end.p0(i64 4, ptr %6) #12
  call void @llvm.lifetime.end.p0(i64 4, ptr %5) #12
  br label %38

38:                                               ; preds = %37, %2
  ret void
}

; Function Attrs: inlinehint nounwind uwtable
define internal i32 @Abc_TtWordNum(i32 noundef %0) #2 {
  %2 = alloca i32, align 4
  store i32 %0, ptr %2, align 4, !tbaa !8
  %3 = load i32, ptr %2, align 4, !tbaa !8
  %4 = icmp sle i32 %3, 6
  br i1 %4, label %5, label %6

5:                                                ; preds = %1
  br label %10

6:                                                ; preds = %1
  %7 = load i32, ptr %2, align 4, !tbaa !8
  %8 = sub nsw i32 %7, 6
  %9 = shl i32 1, %8
  br label %10

10:                                               ; preds = %6, %5
  %11 = phi i32 [ 1, %5 ], [ %9, %6 ]
  ret i32 %11
}

; Function Attrs: nounwind uwtable
define i32 @Abc_TtScc(ptr noundef %0, i32 noundef %1) #0 {
  %3 = alloca ptr, align 8
  %4 = alloca i32, align 4
  %5 = alloca i32, align 4
  %6 = alloca i32, align 4
  %7 = alloca i32, align 4
  store ptr %0, ptr %3, align 8, !tbaa !3
  store i32 %1, ptr %4, align 4, !tbaa !8
  call void @llvm.lifetime.start.p0(i64 4, ptr %5) #12
  call void @llvm.lifetime.start.p0(i64 4, ptr %6) #12
  %8 = load i32, ptr %4, align 4, !tbaa !8
  %9 = call i32 @Abc_TtWordNum(i32 noundef %8)
  store i32 %9, ptr %6, align 4, !tbaa !8
  call void @llvm.lifetime.start.p0(i64 4, ptr %7) #12
  store i32 0, ptr %7, align 4, !tbaa !8
  %10 = load ptr, ptr %3, align 8, !tbaa !3
  %11 = load i32, ptr %4, align 4, !tbaa !8
  call void @Abc_TtNormalizeSmallTruth(ptr noundef %10, i32 noundef %11)
  store i32 0, ptr %5, align 4, !tbaa !8
  br label %12

12:                                               ; preds = %27, %2
  %13 = load i32, ptr %5, align 4, !tbaa !8
  %14 = load i32, ptr %6, align 4, !tbaa !8
  %15 = icmp slt i32 %13, %14
  br i1 %15, label %16, label %30

16:                                               ; preds = %12
  %17 = load ptr, ptr %3, align 8, !tbaa !3
  %18 = load i32, ptr %5, align 4, !tbaa !8
  %19 = sext i32 %18 to i64
  %20 = getelementptr inbounds i64, ptr %17, i64 %19
  %21 = load i64, ptr %20, align 8, !tbaa !10
  %22 = load i32, ptr %5, align 4, !tbaa !8
  %23 = call i32 @Abc_TtBitCount16(i32 noundef %22)
  %24 = call i32 @Abc_TtScc6(i64 noundef %21, i32 noundef %23)
  %25 = load i32, ptr %7, align 4, !tbaa !8
  %26 = add nsw i32 %25, %24
  store i32 %26, ptr %7, align 4, !tbaa !8
  br label %27

27:                                               ; preds = %16
  %28 = load i32, ptr %5, align 4, !tbaa !8
  %29 = add nsw i32 %28, 1
  store i32 %29, ptr %5, align 4, !tbaa !8
  br label %12, !llvm.loop !22

30:                                               ; preds = %12
  %31 = load i32, ptr %7, align 4, !tbaa !8
  call void @llvm.lifetime.end.p0(i64 4, ptr %7) #12
  call void @llvm.lifetime.end.p0(i64 4, ptr %6) #12
  call void @llvm.lifetime.end.p0(i64 4, ptr %5) #12
  ret i32 %31
}