; Function Attrs: nofree norecurse nosync nounwind memory(argmem: readwrite) uwtable
define i32 @Abc_TtScc(ptr noundef captures(none) %0, i32 noundef %1) local_unnamed_addr #0 {
  %3 = icmp slt i32 %1, 7
  %4 = add nsw i32 %1, -6
  %5 = shl nuw i32 1, %4
  %6 = select i1 %3, i32 1, i32 %5
  %7 = icmp slt i32 %1, 6
  br i1 %7, label %8, label %Abc_TtNormalizeSmallTruth.exit

8:                                                ; preds = %2
  %9 = shl nuw nsw i32 1, %1
  %10 = load i64, ptr %0, align 8, !tbaa !3
  %11 = zext nneg i32 %9 to i64
  %notmask.i = shl nsw i64 -1, %11
  %12 = xor i64 %notmask.i, -1
  %13 = and i64 %10, %12
  store i64 %13, ptr %0, align 8, !tbaa !3
  %14 = icmp ult i32 %1, 6
  br i1 %14, label %.lr.ph.i, label %Abc_TtNormalizeSmallTruth.exit

.lr.ph.i:                                         ; preds = %8, %.lr.ph.i
  %indvars.iv.i = phi i64 [ %indvars.iv.next.i, %.lr.ph.i ], [ %11, %8 ]
  %15 = phi i64 [ %17, %.lr.ph.i ], [ %13, %8 ]
  %16 = shl i64 %13, %indvars.iv.i
  %17 = or i64 %15, %16
  %indvars.iv.next.i = add nuw nsw i64 %indvars.iv.i, %11
  %18 = icmp samesign ult i64 %indvars.iv.next.i, 64
  br i1 %18, label %.lr.ph.i, label %..loopexit_crit_edge.i, !llvm.loop !7

..loopexit_crit_edge.i:                           ; preds = %.lr.ph.i
  store i64 %17, ptr %0, align 8, !tbaa !3
  br label %Abc_TtNormalizeSmallTruth.exit

Abc_TtNormalizeSmallTruth.exit:                   ; preds = %2, %8, %..loopexit_crit_edge.i
  %19 = icmp sgt i32 %6, 0
  br i1 %19, label %.lr.ph.preheader, label %._crit_edge

.lr.ph.preheader:                                 ; preds = %Abc_TtNormalizeSmallTruth.exit
  %wide.trip.count = zext nneg i32 %6 to i64
  br label %.lr.ph

.lr.ph:                                           ; preds = %.lr.ph.preheader, %Abc_TtScc6.exit
  %indvars.iv = phi i64 [ 0, %.lr.ph.preheader ], [ %indvars.iv.next, %Abc_TtScc6.exit ]
  %.014 = phi i32 [ 0, %.lr.ph.preheader ], [ %34, %Abc_TtScc6.exit ]
  %20 = getelementptr inbounds nuw i64, ptr %0, i64 %indvars.iv
  %21 = load i64, ptr %20, align 8, !tbaa !3
  %22 = trunc nuw nsw i64 %indvars.iv to i32
  %23 = and i32 %22, 65535
  %24 = tail call range(i32 0, 17) i32 @llvm.ctpop.i32(i32 %23)
  %.not.i = icmp eq i64 %21, 0
  br i1 %.not.i, label %Abc_TtScc6.exit, label %.preheader.i

.preheader.i:                                     ; preds = %.lr.ph, %33
  %indvars.iv.i11 = phi i64 [ %indvars.iv.next.i12, %33 ], [ 0, %.lr.ph ]
  %.01116.i = phi i32 [ %.1.i, %33 ], [ 0, %.lr.ph ]
  %25 = shl nuw i64 1, %indvars.iv.i11
  %26 = and i64 %25, %21
  %.not14.i = icmp eq i64 %26, 0
  br i1 %.not14.i, label %33, label %27

27:                                               ; preds = %.preheader.i
  %28 = trunc nuw nsw i64 %indvars.iv.i11 to i32
  %29 = tail call range(i32 0, 7) i32 @llvm.ctpop.i32(i32 %28)
  %30 = add nuw nsw i32 %29, %24
  %31 = shl nuw nsw i32 1, %30
  %32 = add nsw i32 %31, %.01116.i
  br label %33

33:                                               ; preds = %27, %.preheader.i
  %.1.i = phi i32 [ %32, %27 ], [ %.01116.i, %.preheader.i ]
  %indvars.iv.next.i12 = add nuw nsw i64 %indvars.iv.i11, 1
  %exitcond.not.i = icmp eq i64 %indvars.iv.next.i12, 64
  br i1 %exitcond.not.i, label %Abc_TtScc6.exit, label %.preheader.i, !llvm.loop !17

Abc_TtScc6.exit:                                  ; preds = %33, %.lr.ph
  %.0.i = phi i32 [ 0, %.lr.ph ], [ %.1.i, %33 ]
  %34 = add nsw i32 %.0.i, %.014
  %indvars.iv.next = add nuw nsw i64 %indvars.iv, 1
  %exitcond.not = icmp eq i64 %indvars.iv.next, %wide.trip.count
  br i1 %exitcond.not, label %._crit_edge, label %.lr.ph, !llvm.loop !18

._crit_edge:                                      ; preds = %Abc_TtScc6.exit, %Abc_TtNormalizeSmallTruth.exit
  %.0.lcssa = phi i32 [ 0, %Abc_TtNormalizeSmallTruth.exit ], [ %34, %Abc_TtScc6.exit ]
  ret i32 %.0.lcssa
}